; ModuleID = '17/241.c'
source_filename = "17/241.c"
target datalayout = "e-m:e-p270:32:32-p271:32:32-p272:64:64-i64:64-f80:128-n8:16:32:64-S128"
target triple = "x86_64-pc-linux-gnu"

@.str = private unnamed_addr constant [3 x i8] c"%s\00", align 1

; Function Attrs: noinline nounwind uwtable
define dso_local i32 @main() #0 {
  %1 = alloca i32, align 4
  %2 = alloca [2 x [101 x i8]], align 16
  %3 = alloca i8, align 1
  %4 = alloca i32, align 4
  %5 = alloca i32, align 4
  %6 = alloca i32, align 4
  %7 = alloca i32, align 4
  store i32 0, i32* %1, align 4
  store i32 0, i32* %6, align 4
  store i32 0, i32* %7, align 4
  br label %8

8:                                                ; preds = %125, %0
  %9 = getelementptr inbounds [2 x [101 x i8]], [2 x [101 x i8]]* %2, i64 0, i64 0
  %10 = getelementptr inbounds [101 x i8], [101 x i8]* %9, i64 0, i64 0
  %11 = call i32 (i8*, ...) @__isoc99_scanf(i8* getelementptr inbounds ([3 x i8], [3 x i8]* @.str, i64 0, i64 0), i8* %10)
  %12 = icmp ne i32 %11, -1
  br i1 %12, label %13, label %126

13:                                               ; preds = %8
  %14 = getelementptr inbounds [2 x [101 x i8]], [2 x [101 x i8]]* %2, i64 0, i64 0
  %15 = getelementptr inbounds [101 x i8], [101 x i8]* %14, i64 0, i64 0
  %16 = call i64 @strlen(i8* %15) #3
  %17 = trunc i64 %16 to i32
  store i32 %17, i32* %5, align 4
  store i32 0, i32* %4, align 4
  br label %18

18:                                               ; preds = %58, %13
  %19 = load i32, i32* %4, align 4
  %20 = load i32, i32* %5, align 4
  %21 = icmp slt i32 %19, %20
  br i1 %21, label %22, label %61

22:                                               ; preds = %18
  %23 = getelementptr inbounds [2 x [101 x i8]], [2 x [101 x i8]]* %2, i64 0, i64 0
  %24 = load i32, i32* %4, align 4
  %25 = sext i32 %24 to i64
  %26 = getelementptr inbounds [101 x i8], [101 x i8]* %23, i64 0, i64 %25
  %27 = load i8, i8* %26, align 1
  store i8 %27, i8* %3, align 1
  %28 = load i8, i8* %3, align 1
  %29 = sext i8 %28 to i32
  %30 = icmp eq i32 %29, 40
  br i1 %30, label %31, label %34

31:                                               ; preds = %22
  %32 = load i32, i32* %6, align 4
  %33 = add nsw i32 %32, 1
  store i32 %33, i32* %6, align 4
  br label %34

34:                                               ; preds = %31, %22
  %35 = load i8, i8* %3, align 1
  %36 = sext i8 %35 to i32
  %37 = icmp eq i32 %36, 41
  br i1 %37, label %38, label %41

38:                                               ; preds = %34
  %39 = load i32, i32* %6, align 4
  %40 = add nsw i32 %39, -1
  store i32 %40, i32* %6, align 4
  br label %41

41:                                               ; preds = %38, %34
  %42 = load i32, i32* %6, align 4
  %43 = icmp sge i32 %42, 0
  br i1 %43, label %44, label %49

44:                                               ; preds = %41
  %45 = getelementptr inbounds [2 x [101 x i8]], [2 x [101 x i8]]* %2, i64 0, i64 1
  %46 = load i32, i32* %4, align 4
  %47 = sext i32 %46 to i64
  %48 = getelementptr inbounds [101 x i8], [101 x i8]* %45, i64 0, i64 %47
  store i8 32, i8* %48, align 1
  br label %58

49:                                               ; preds = %41
  %50 = load i32, i32* %6, align 4
  %51 = icmp slt i32 %50, 0
  br i1 %51, label %52, label %57

52:                                               ; preds = %49
  %53 = getelementptr inbounds [2 x [101 x i8]], [2 x [101 x i8]]* %2, i64 0, i64 1
  %54 = load i32, i32* %4, align 4
  %55 = sext i32 %54 to i64
  %56 = getelementptr inbounds [101 x i8], [101 x i8]* %53, i64 0, i64 %55
  store i8 63, i8* %56, align 1
  store i32 0, i32* %6, align 4
  br label %57

57:                                               ; preds = %52, %49
  br label %58

58:                                               ; preds = %57, %44
  %59 = load i32, i32* %4, align 4
  %60 = add nsw i32 %59, 1
  store i32 %60, i32* %4, align 4
  br label %18

61:                                               ; preds = %18
  store i32 0, i32* %6, align 4
  %62 = load i32, i32* %5, align 4
  %63 = sub nsw i32 %62, 1
  store i32 %63, i32* %4, align 4
  br label %64

64:                                               ; preds = %95, %61
  %65 = load i32, i32* %4, align 4
  %66 = icmp sge i32 %65, 0
  br i1 %66, label %67, label %98

67:                                               ; preds = %64
  %68 = getelementptr inbounds [2 x [101 x i8]], [2 x [101 x i8]]* %2, i64 0, i64 0
  %69 = load i32, i32* %4, align 4
  %70 = sext i32 %69 to i64
  %71 = getelementptr inbounds [101 x i8], [101 x i8]* %68, i64 0, i64 %70
  %72 = load i8, i8* %71, align 1
  store i8 %72, i8* %3, align 1
  %73 = load i8, i8* %3, align 1
  %74 = sext i8 %73 to i32
  %75 = icmp eq i32 %74, 41
  br i1 %75, label %76, label %79

76:                                               ; preds = %67
  %77 = load i32, i32* %6, align 4
  %78 = add nsw i32 %77, 1
  store i32 %78, i32* %6, align 4
  br label %79

79:                                               ; preds = %76, %67
  %80 = load i8, i8* %3, align 1
  %81 = sext i8 %80 to i32
  %82 = icmp eq i32 %81, 40
  br i1 %82, label %83, label %86

83:                                               ; preds = %79
  %84 = load i32, i32* %6, align 4
  %85 = add nsw i32 %84, -1
  store i32 %85, i32* %6, align 4
  br label %86

86:                                               ; preds = %83, %79
  %87 = load i32, i32* %6, align 4
  %88 = icmp slt i32 %87, 0
  br i1 %88, label %89, label %94

89:                                               ; preds = %86
  %90 = getelementptr inbounds [2 x [101 x i8]], [2 x [101 x i8]]* %2, i64 0, i64 1
  %91 = load i32, i32* %4, align 4
  %92 = sext i32 %91 to i64
  %93 = getelementptr inbounds [101 x i8], [101 x i8]* %90, i64 0, i64 %92
  store i8 36, i8* %93, align 1
  store i32 0, i32* %6, align 4
  br label %94

94:                                               ; preds = %89, %86
  br label %95

95:                                               ; preds = %94
  %96 = load i32, i32* %4, align 4
  %97 = add nsw i32 %96, -1
  store i32 %97, i32* %4, align 4
  br label %64

98:                                               ; preds = %64
  store i32 0, i32* %6, align 4
  %99 = getelementptr inbounds [2 x [101 x i8]], [2 x [101 x i8]]* %2, i64 0, i64 1
  %100 = load i32, i32* %5, align 4
  %101 = sext i32 %100 to i64
  %102 = getelementptr inbounds [101 x i8], [101 x i8]* %99, i64 0, i64 %101
  store i8 0, i8* %102, align 1
  %103 = getelementptr inbounds [2 x [101 x i8]], [2 x [101 x i8]]* %2, i64 0, i64 0
  %104 = getelementptr inbounds [101 x i8], [101 x i8]* %103, i64 0, i64 0
  %105 = call i32 @puts(i8* %104)
  %106 = getelementptr inbounds [2 x [101 x i8]], [2 x [101 x i8]]* %2, i64 0, i64 1
  %107 = getelementptr inbounds [101 x i8], [101 x i8]* %106, i64 0, i64 0
  %108 = call i32 @puts(i8* %107)
  store i32 0, i32* %4, align 4
  br label %109

109:                                              ; preds = %122, %98
  %110 = load i32, i32* %4, align 4
  %111 = load i32, i32* %5, align 4
  %112 = icmp slt i32 %110, %111
  br i1 %112, label %113, label %125

113:                                              ; preds = %109
  %114 = getelementptr inbounds [2 x [101 x i8]], [2 x [101 x i8]]* %2, i64 0, i64 1
  %115 = load i32, i32* %4, align 4
  %116 = sext i32 %115 to i64
  %117 = getelementptr inbounds [101 x i8], [101 x i8]* %114, i64 0, i64 %116
  store i8 0, i8* %117, align 1
  %118 = getelementptr inbounds [2 x [101 x i8]], [2 x [101 x i8]]* %2, i64 0, i64 0
  %119 = load i32, i32* %4, align 4
  %120 = sext i32 %119 to i64
  %121 = getelementptr inbounds [101 x i8], [101 x i8]* %118, i64 0, i64 %120
  store i8 0, i8* %121, align 1
  br label %122

122:                                              ; preds = %113
  %123 = load i32, i32* %4, align 4
  %124 = add nsw i32 %123, 1
  store i32 %124, i32* %4, align 4
  br label %109

125:                                              ; preds = %109
  br label %8

126:                                              ; preds = %8
  ret i32 0
}

declare dso_local i32 @__isoc99_scanf(i8*, ...) #1

; Function Attrs: nounwind readonly
declare dso_local i64 @strlen(i8*) #2

declare dso_local i32 @puts(i8*) #1


!llvm.module.flags = !{!0}
!llvm.ident = !{!1}

!0 = !{i32 1, !"wchar_size", i32 4}
!1 = !{!"clang version 10.0.0-4ubuntu1 "}
